; Function Attrs: mustprogress uwtable
define noundef zeroext i1 @_ZNK8tinyxml210XMLUnknown12ShallowEqualEPKNS_7XMLNodeE(ptr noundef nonnull align 8 dereferenceable(104) %0, ptr noundef %1) unnamed_addr #4 align 2 {
  %3 = load ptr, ptr %1, align 8, !tbaa !63
  %4 = getelementptr inbounds nuw i8, ptr %3, i64 88
  %5 = load ptr, ptr %4, align 8
  %6 = tail call noundef ptr %5(ptr noundef nonnull align 8 dereferenceable(104) %1)
  %.not = icmp eq ptr %6, null
  br i1 %.not, label %_ZN8tinyxml27XMLUtil11StringEqualEPKcS2_i.exit, label %7

7:                                                ; preds = %2
  %8 = load ptr, ptr %6, align 8, !tbaa !63
  %9 = getelementptr inbounds nuw i8, ptr %8, i64 72
  %10 = load ptr, ptr %9, align 8
  %11 = tail call noundef ptr %10(ptr noundef nonnull align 8 dereferenceable(104) %6)
  %.not.i = icmp eq ptr %11, null
  br i1 %.not.i, label %12, label %_ZNK8tinyxml27XMLNode5ValueEv.exit

12:                                               ; preds = %7
  %13 = getelementptr inbounds nuw i8, ptr %6, i64 24
  %14 = tail call noundef ptr @_ZN8tinyxml27StrPair6GetStrEv(ptr noundef nonnull align 8 dereferenceable(24) %13)
  br label %_ZNK8tinyxml27XMLNode5ValueEv.exit

_ZNK8tinyxml27XMLNode5ValueEv.exit:               ; preds = %7, %12
  %.0.i = phi ptr [ %14, %12 ], [ null, %7 ]
  %15 = load ptr, ptr %0, align 8, !tbaa !63
  %16 = getelementptr inbounds nuw i8, ptr %15, i64 72
  %17 = load ptr, ptr %16, align 8
  %18 = tail call noundef ptr %17(ptr noundef nonnull align 8 dereferenceable(104) %0)
  %.not.i4 = icmp eq ptr %18, null
  br i1 %.not.i4, label %19, label %_ZNK8tinyxml27XMLNode5ValueEv.exit6

19:                                               ; preds = %_ZNK8tinyxml27XMLNode5ValueEv.exit
  %20 = getelementptr inbounds nuw i8, ptr %0, i64 24
  %21 = tail call noundef ptr @_ZN8tinyxml27StrPair6GetStrEv(ptr noundef nonnull align 8 dereferenceable(24) %20)
  br label %_ZNK8tinyxml27XMLNode5ValueEv.exit6

_ZNK8tinyxml27XMLNode5ValueEv.exit6:              ; preds = %_ZNK8tinyxml27XMLNode5ValueEv.exit, %19
  %.0.i5 = phi ptr [ %21, %19 ], [ null, %_ZNK8tinyxml27XMLNode5ValueEv.exit ]
  %22 = icmp eq ptr %.0.i, %.0.i5
  br i1 %22, label %_ZN8tinyxml27XMLUtil11StringEqualEPKcS2_i.exit, label %23

23:                                               ; preds = %_ZNK8tinyxml27XMLNode5ValueEv.exit6
  %24 = tail call i32 @strncmp(ptr noundef nonnull dereferenceable(1) %.0.i, ptr noundef nonnull dereferenceable(1) %.0.i5, i64 noundef 2147483647) #33
  %25 = icmp eq i32 %24, 0
  br label %_ZN8tinyxml27XMLUtil11StringEqualEPKcS2_i.exit

_ZN8tinyxml27XMLUtil11StringEqualEPKcS2_i.exit:   ; preds = %23, %_ZNK8tinyxml27XMLNode5ValueEv.exit6, %2
  %26 = phi i1 [ false, %2 ], [ %25, %23 ], [ true, %_ZNK8tinyxml27XMLNode5ValueEv.exit6 ]
  ret i1 %26
}